; Function Attrs: mustprogress nofree norecurse nosync nounwind willreturn memory(argmem: readwrite) uwtable
define internal void @callReplyDouble(ptr noundef captures(none) initializes((16, 36), (48, 56)) %0, double noundef %1, ptr noundef %2, i64 noundef %3) #5 {
  %5 = getelementptr inbounds nuw i8, ptr %0, i64 32
  store i32 8, ptr %5, align 8, !tbaa !15
  %6 = getelementptr inbounds nuw i8, ptr %0, i64 16
  store ptr %2, ptr %6, align 8, !tbaa !25
  %7 = getelementptr inbounds nuw i8, ptr %0, i64 24
  store i64 %3, ptr %7, align 8, !tbaa !34
  %8 = getelementptr inbounds nuw i8, ptr %0, i64 36
  %9 = load i32, ptr %8, align 4, !tbaa !5
  %10 = or i32 %9, 4
  store i32 %10, ptr %8, align 4, !tbaa !5
  %11 = getelementptr inbounds nuw i8, ptr %0, i64 48
  store double %1, ptr %11, align 8, !tbaa !19
  ret void
}